; Function Attrs: mustprogress nounwind uwtable
define dso_local noundef i32 @_ZNK4llvm15TargetInstrInfo17defaultDefLatencyERKNS_12MCSchedModelERKNS_12MachineInstrE(ptr noundef nonnull align 8 dereferenceable(80) %0, ptr nocapture noundef nonnull readonly align 8 dereferenceable(72) %1, ptr noundef nonnull align 8 dereferenceable(70) %2) local_unnamed_addr #0 align 2 {
  %4 = getelementptr inbounds nuw i8, ptr %2, i64 68
  %5 = load i16, ptr %4, align 4
  switch i16 %5, label %_ZNK4llvm12MachineInstr11isTransientEv.exit [
    i16 0, label %_ZNK4llvm12MachineInstr11isTransientEv.exit.thread
    i16 65, label %_ZNK4llvm12MachineInstr11isTransientEv.exit.thread
    i16 19, label %_ZNK4llvm12MachineInstr11isTransientEv.exit.thread
    i16 9, label %_ZNK4llvm12MachineInstr11isTransientEv.exit.thread
    i16 11, label %_ZNK4llvm12MachineInstr11isTransientEv.exit.thread
    i16 18, label %_ZNK4llvm12MachineInstr11isTransientEv.exit.thread
  ]

_ZNK4llvm12MachineInstr11isTransientEv.exit:      ; preds = %3
  %6 = getelementptr inbounds nuw i8, ptr %2, i64 16
  %7 = load ptr, ptr %6, align 8
  %8 = getelementptr inbounds nuw i8, ptr %7, i64 16
  %9 = load i64, ptr %8, align 8
  %10 = and i64 %9, 16
  %.not = icmp eq i64 %10, 0
  br i1 %.not, label %11, label %_ZNK4llvm12MachineInstr11isTransientEv.exit.thread

11:                                               ; preds = %_ZNK4llvm12MachineInstr11isTransientEv.exit
  %12 = add i16 %5, -1
  %spec.select.i.i = icmp ult i16 %12, 2
  br i1 %spec.select.i.i, label %13, label %19

13:                                               ; preds = %11
  %14 = getelementptr inbounds nuw i8, ptr %2, i64 32
  %15 = load ptr, ptr %14, align 8
  %16 = getelementptr inbounds i8, ptr %15, i64 48
  %17 = load i64, ptr %16, align 8
  %18 = and i64 %17, 8
  %.not.i = icmp eq i64 %18, 0
  br i1 %.not.i, label %19, label %_ZNK4llvm12MachineInstr7mayLoadENS0_9QueryTypeE.exit.thread

19:                                               ; preds = %13, %11
  %20 = getelementptr inbounds nuw i8, ptr %2, i64 44
  %21 = load i32, ptr %20, align 4
  %22 = and i32 %21, 12
  %23 = icmp eq i32 %22, 0
  %24 = and i32 %21, 4
  %25 = icmp ne i32 %24, 0
  %or.cond.i.i = or i1 %23, %25
  br i1 %or.cond.i.i, label %26, label %_ZNK4llvm12MachineInstr7mayLoadENS0_9QueryTypeE.exit

26:                                               ; preds = %19
  %27 = and i64 %9, 524288
  %.not9 = icmp eq i64 %27, 0
  br i1 %.not9, label %31, label %_ZNK4llvm12MachineInstr7mayLoadENS0_9QueryTypeE.exit.thread

_ZNK4llvm12MachineInstr7mayLoadENS0_9QueryTypeE.exit: ; preds = %19
  %28 = tail call noundef zeroext i1 @_ZNK4llvm12MachineInstr19hasPropertyInBundleEmNS0_9QueryTypeE(ptr noundef nonnull align 8 dereferenceable(70) %2, i64 noundef 524288, i32 noundef 1) #26
  br i1 %28, label %_ZNK4llvm12MachineInstr7mayLoadENS0_9QueryTypeE.exit.thread, label %_ZNK4llvm12MachineInstr7mayLoadENS0_9QueryTypeE.exit._crit_edge

_ZNK4llvm12MachineInstr7mayLoadENS0_9QueryTypeE.exit._crit_edge: ; preds = %_ZNK4llvm12MachineInstr7mayLoadENS0_9QueryTypeE.exit
  %.pre = load i16, ptr %4, align 4
  br label %31

_ZNK4llvm12MachineInstr7mayLoadENS0_9QueryTypeE.exit.thread: ; preds = %13, %26, %_ZNK4llvm12MachineInstr7mayLoadENS0_9QueryTypeE.exit
  %29 = getelementptr inbounds nuw i8, ptr %1, i64 12
  %30 = load i32, ptr %29, align 4
  br label %_ZNK4llvm12MachineInstr11isTransientEv.exit.thread

31:                                               ; preds = %_ZNK4llvm12MachineInstr7mayLoadENS0_9QueryTypeE.exit._crit_edge, %26
  %32 = phi i16 [ %.pre, %_ZNK4llvm12MachineInstr7mayLoadENS0_9QueryTypeE.exit._crit_edge ], [ %5, %26 ]
  %33 = zext i16 %32 to i32
  %34 = load ptr, ptr %0, align 8
  %35 = getelementptr inbounds i8, ptr %34, i64 1056
  %36 = load ptr, ptr %35, align 8
  %37 = tail call noundef zeroext i1 %36(ptr noundef nonnull align 8 dereferenceable(80) %0, i32 noundef %33) #26
  br i1 %37, label %38, label %_ZNK4llvm12MachineInstr11isTransientEv.exit.thread

38:                                               ; preds = %31
  %39 = getelementptr inbounds nuw i8, ptr %1, i64 16
  %40 = load i32, ptr %39, align 8
  br label %_ZNK4llvm12MachineInstr11isTransientEv.exit.thread

_ZNK4llvm12MachineInstr11isTransientEv.exit.thread: ; preds = %3, %3, %3, %3, %3, %3, %31, %_ZNK4llvm12MachineInstr11isTransientEv.exit, %38, %_ZNK4llvm12MachineInstr7mayLoadENS0_9QueryTypeE.exit.thread
  %.0 = phi i32 [ %30, %_ZNK4llvm12MachineInstr7mayLoadENS0_9QueryTypeE.exit.thread ], [ %40, %38 ], [ 0, %_ZNK4llvm12MachineInstr11isTransientEv.exit ], [ 1, %31 ], [ 0, %3 ], [ 0, %3 ], [ 0, %3 ], [ 0, %3 ], [ 0, %3 ], [ 0, %3 ]
  ret i32 %.0
}